; Function Attrs: mustprogress nounwind uwtable
define internal noalias noundef ptr @_ZN6evmone8advanced12_GLOBAL__N_12opIXadL_ZNS0_5instr4implILNS_6OpcodeE255EXadL_ZNS_5instr4core12selfdestructENS_8StackTopElRNS_14ExecutionStateEEEEENS_10TermResultERNS0_22AdvancedExecutionStateEEEEEPKNS0_11InstructionESG_SD_(ptr readnone captures(none) %0, ptr noundef nonnull align 8 dereferenceable(564) %1) #4 {
  %3 = getelementptr inbounds nuw i8, ptr %1, i64 552
  %.sroa.0.0.copyload.i = load ptr, ptr %3, align 8, !tbaa !57
  %4 = getelementptr inbounds nuw i8, ptr %1, i64 544
  %5 = load i64, ptr %4, align 8, !tbaa !106
  %6 = tail call { i32, i64 } @_ZN6evmone5instr4core12selfdestructENS_8StackTopElRNS_14ExecutionStateE(ptr %.sroa.0.0.copyload.i, i64 noundef %5, ptr noundef nonnull align 8 dereferenceable(564) %1) #26
  %7 = extractvalue { i32, i64 } %6, 0
  %8 = extractvalue { i32, i64 } %6, 1
  store i64 %8, ptr %4, align 8, !tbaa !106
  %9 = getelementptr inbounds nuw i8, ptr %1, i64 120
  store i32 %7, ptr %9, align 8, !tbaa !3
  ret ptr null
}